; Function Attrs: mustprogress nounwind uwtable
define noundef zeroext i1 @_ZN5boost10filesystem19portable_posix_nameERKNSt7__cxx1112basic_stringIcSt11char_traitsIcESaIcEEE(ptr noundef nonnull align 8 dereferenceable(32) %0) local_unnamed_addr #0 {
  %2 = getelementptr inbounds nuw i8, ptr %0, i64 8
  %3 = load i64, ptr %2, align 8, !tbaa !3
  %4 = icmp eq i64 %3, 0
  br i1 %4, label %8, label %5

5:                                                ; preds = %1
  %6 = tail call noundef i64 @_ZNKSt7__cxx1112basic_stringIcSt11char_traitsIcESaIcEE17find_first_not_ofEPKcmm(ptr noundef nonnull align 8 dereferenceable(32) %0, ptr noundef nonnull @_ZN5boost10filesystem12_GLOBAL__N_117posix_valid_charsE, i64 noundef 0, i64 noundef 65) #2
  %7 = icmp eq i64 %6, -1
  br label %8

8:                                                ; preds = %5, %1
  %9 = phi i1 [ false, %1 ], [ %7, %5 ]
  ret i1 %9
}